target datalayout = "e-m:e-p270:32:32-p271:32:32-p272:64:64-i64:64-i128:128-f80:128-n8:16:32:64-S128"
target triple = "x86_64-pc-linux-gnu"

%"class.icu_77::MeasureUnit" = type <{ %"class.icu_77::UObject", ptr, i16, i8, [5 x i8] }>
%"class.icu_77::UObject" = type { ptr }

; Function Attrs: mustprogress uwtable
define void @_ZN6icu_776number4impl14stem_to_object4unitENS1_8skeleton8StemEnumE(ptr dead_on_unwind noalias writable sret(%"class.icu_77::MeasureUnit") align 8 %0, i32 noundef %1) #1 {
  %3 = alloca ptr, align 8
  %4 = alloca i32, align 4
  store ptr %0, ptr %3, align 8
  store i32 %1, ptr %4, align 4, !tbaa !23
  %5 = load i32, ptr %4, align 4, !tbaa !23
  switch i32 %5, label %9 [
    i32 5, label %6
    i32 6, label %7
    i32 7, label %8
  ]

6:                                                ; preds = %2
  call void @_ZN6icu_7711MeasureUnitC1Ev(ptr noundef nonnull align 8 dereferenceable(19) %0)
  br label %10

7:                                                ; preds = %2
  call void @_ZN6icu_7711MeasureUnit10getPercentEv(ptr dead_on_unwind writable sret(%"class.icu_77::MeasureUnit") align 8 %0)
  br label %10

8:                                                ; preds = %2
  call void @_ZN6icu_7711MeasureUnit11getPermilleEv(ptr dead_on_unwind writable sret(%"class.icu_77::MeasureUnit") align 8 %0)
  br label %10

9:                                                ; preds = %2
  call void @abort() #16
  unreachable

10:                                               ; preds = %8, %7, %6
  ret void
}