; Function Attrs: mustprogress uwtable
define void @_ZN6icu_776number4impl14stem_to_object4unitENS1_8skeleton8StemEnumE(ptr dead_on_unwind noalias writable sret(%"class.icu_77::MeasureUnit") align 8 %0, i32 noundef %1) local_unnamed_addr #1 {
  switch i32 %1, label %6 [
    i32 5, label %3
    i32 6, label %4
    i32 7, label %5
  ]

3:                                                ; preds = %2
  tail call void @_ZN6icu_7711MeasureUnitC1Ev(ptr noundef nonnull align 8 dereferenceable(19) %0)
  br label %7

4:                                                ; preds = %2
  tail call void @_ZN6icu_7711MeasureUnit10getPercentEv(ptr dead_on_unwind writable sret(%"class.icu_77::MeasureUnit") align 8 %0)
  br label %7

5:                                                ; preds = %2
  tail call void @_ZN6icu_7711MeasureUnit11getPermilleEv(ptr dead_on_unwind writable sret(%"class.icu_77::MeasureUnit") align 8 %0)
  br label %7

6:                                                ; preds = %2
  tail call void @abort() #20
  unreachable

7:                                                ; preds = %5, %4, %3
  ret void
}